target datalayout = "e-m:e-p270:32:32-p271:32:32-p272:64:64-i64:64-i128:128-f80:128-n8:16:32:64-S128"
target triple = "x86_64-pc-linux-gnu"

%struct.pkcs7_st = type { ptr, i64, i32, i32, ptr, %union.anon.1, %struct.PKCS7_CTX_st }
%union.anon.1 = type { ptr }
%struct.PKCS7_CTX_st = type { ptr, ptr }
%struct.PKCS12_st = type { ptr, ptr, ptr }

@.str = private unnamed_addr constant [35 x i8] c"../openssl/crypto/pkcs12/p12_add.c\00", align 1
@__func__.PKCS12_unpack_authsafes = private unnamed_addr constant [24 x i8] c"PKCS12_unpack_authsafes\00", align 1

; Function Attrs: inlinehint nounwind uwtable
define internal ptr @ossl_check_PKCS7_sk_type(ptr noundef %0) #3 {
  %2 = alloca ptr, align 8
  store ptr %0, ptr %2, align 8, !tbaa !50
  %3 = load ptr, ptr %2, align 8, !tbaa !50
  ret ptr %3
}

; Function Attrs: inlinehint nounwind uwtable
define internal ptr @ossl_check_const_PKCS7_sk_type(ptr noundef %0) #3 {
  %2 = alloca ptr, align 8
  store ptr %0, ptr %2, align 8, !tbaa !50
  %3 = load ptr, ptr %2, align 8, !tbaa !50
  ret ptr %3
}

; Function Attrs: nounwind uwtable
define ptr @PKCS12_unpack_authsafes(ptr noundef %0) #0 {
  %2 = alloca ptr, align 8
  %3 = alloca ptr, align 8
  %4 = alloca ptr, align 8
  %5 = alloca ptr, align 8
  %6 = alloca ptr, align 8
  %7 = alloca i32, align 4
  %8 = alloca i32, align 4
  store ptr %0, ptr %3, align 8, !tbaa !48
  call void @llvm.lifetime.start.p0(i64 8, ptr %4) #4
  call void @llvm.lifetime.start.p0(i64 8, ptr %5) #4
  call void @llvm.lifetime.start.p0(i64 8, ptr %6) #4
  call void @llvm.lifetime.start.p0(i64 4, ptr %7) #4
  %9 = load ptr, ptr %3, align 8, !tbaa !48
  %10 = getelementptr inbounds nuw %struct.PKCS12_st, ptr %9, i32 0, i32 2
  %11 = load ptr, ptr %10, align 8, !tbaa !52
  %12 = getelementptr inbounds nuw %struct.pkcs7_st, ptr %11, i32 0, i32 4
  %13 = load ptr, ptr %12, align 8, !tbaa !26
  %14 = call i32 @OBJ_obj2nid(ptr noundef %13)
  %15 = icmp eq i32 %14, 21
  br i1 %15, label %17, label %16

16:                                               ; preds = %1
  call void @ERR_new()
  call void @ERR_set_debug(ptr noundef @.str, i32 noundef 203, ptr noundef @__func__.PKCS12_unpack_authsafes)
  call void (i32, i32, ptr, ...) @ERR_set_error(i32 noundef 35, i32 noundef 121, ptr noundef null)
  store ptr null, ptr %2, align 8
  store i32 1, ptr %8, align 4
  br label %72

17:                                               ; preds = %1
  %18 = load ptr, ptr %3, align 8, !tbaa !48
  %19 = getelementptr inbounds nuw %struct.PKCS12_st, ptr %18, i32 0, i32 2
  %20 = load ptr, ptr %19, align 8, !tbaa !52
  %21 = getelementptr inbounds nuw %struct.pkcs7_st, ptr %20, i32 0, i32 5
  %22 = load ptr, ptr %21, align 8, !tbaa !18
  %23 = icmp eq ptr %22, null
  br i1 %23, label %24, label %25

24:                                               ; preds = %17
  call void @ERR_new()
  call void @ERR_set_debug(ptr noundef @.str, i32 noundef 208, ptr noundef @__func__.PKCS12_unpack_authsafes)
  call void (i32, i32, ptr, ...) @ERR_set_error(i32 noundef 35, i32 noundef 101, ptr noundef null)
  store ptr null, ptr %2, align 8
  store i32 1, ptr %8, align 4
  br label %72

25:                                               ; preds = %17
  %26 = load ptr, ptr %3, align 8, !tbaa !48
  %27 = getelementptr inbounds nuw %struct.PKCS12_st, ptr %26, i32 0, i32 2
  %28 = load ptr, ptr %27, align 8, !tbaa !52
  %29 = getelementptr inbounds nuw %struct.pkcs7_st, ptr %28, i32 0, i32 6
  store ptr %29, ptr %5, align 8, !tbaa !55
  %30 = load ptr, ptr %3, align 8, !tbaa !48
  %31 = getelementptr inbounds nuw %struct.PKCS12_st, ptr %30, i32 0, i32 2
  %32 = load ptr, ptr %31, align 8, !tbaa !52
  %33 = getelementptr inbounds nuw %struct.pkcs7_st, ptr %32, i32 0, i32 5
  %34 = load ptr, ptr %33, align 8, !tbaa !18
  %35 = call ptr @PKCS12_AUTHSAFES_it()
  %36 = load ptr, ptr %5, align 8, !tbaa !55
  %37 = call ptr @ossl_pkcs7_ctx_get0_libctx(ptr noundef %36)
  %38 = load ptr, ptr %5, align 8, !tbaa !55
  %39 = call ptr @ossl_pkcs7_ctx_get0_propq(ptr noundef %38)
  %40 = call ptr @ASN1_item_unpack_ex(ptr noundef %34, ptr noundef %35, ptr noundef %37, ptr noundef %39)
  store ptr %40, ptr %4, align 8, !tbaa !50
  %41 = load ptr, ptr %4, align 8, !tbaa !50
  %42 = icmp ne ptr %41, null
  br i1 %42, label %43, label %67

43:                                               ; preds = %25
  store i32 0, ptr %7, align 4, !tbaa !9
  br label %44

44:                                               ; preds = %63, %43
  %45 = load i32, ptr %7, align 4, !tbaa !9
  %46 = load ptr, ptr %4, align 8, !tbaa !50
  %47 = call ptr @ossl_check_const_PKCS7_sk_type(ptr noundef %46)
  %48 = call i32 @OPENSSL_sk_num(ptr noundef %47)
  %49 = icmp slt i32 %45, %48
  br i1 %49, label %50, label %66

50:                                               ; preds = %44
  %51 = load ptr, ptr %4, align 8, !tbaa !50
  %52 = call ptr @ossl_check_const_PKCS7_sk_type(ptr noundef %51)
  %53 = load i32, ptr %7, align 4, !tbaa !9
  %54 = call ptr @OPENSSL_sk_value(ptr noundef %52, i32 noundef %53)
  store ptr %54, ptr %6, align 8, !tbaa !24
  %55 = load ptr, ptr %3, align 8, !tbaa !48
  %56 = getelementptr inbounds nuw %struct.PKCS12_st, ptr %55, i32 0, i32 2
  %57 = load ptr, ptr %56, align 8, !tbaa !52
  %58 = load ptr, ptr %6, align 8, !tbaa !24
  %59 = call i32 @ossl_pkcs7_ctx_propagate(ptr noundef %57, ptr noundef %58)
  %60 = icmp ne i32 %59, 0
  br i1 %60, label %62, label %61

61:                                               ; preds = %50
  br label %69

62:                                               ; preds = %50
  br label %63

63:                                               ; preds = %62
  %64 = load i32, ptr %7, align 4, !tbaa !9
  %65 = add nsw i32 %64, 1
  store i32 %65, ptr %7, align 4, !tbaa !9
  br label %44, !llvm.loop !56

66:                                               ; preds = %44
  br label %67

67:                                               ; preds = %66, %25
  %68 = load ptr, ptr %4, align 8, !tbaa !50
  store ptr %68, ptr %2, align 8
  store i32 1, ptr %8, align 4
  br label %72

69:                                               ; preds = %61
  %70 = load ptr, ptr %4, align 8, !tbaa !50
  %71 = call ptr @ossl_check_PKCS7_sk_type(ptr noundef %70)
  call void @OPENSSL_sk_free(ptr noundef %71)
  store ptr null, ptr %2, align 8
  store i32 1, ptr %8, align 4
  br label %72

72:                                               ; preds = %69, %67, %24, %16
  call void @llvm.lifetime.end.p0(i64 4, ptr %7) #4
  call void @llvm.lifetime.end.p0(i64 8, ptr %6) #4
  call void @llvm.lifetime.end.p0(i64 8, ptr %5) #4
  call void @llvm.lifetime.end.p0(i64 8, ptr %4) #4
  %73 = load ptr, ptr %2, align 8
  ret ptr %73
}