; Function Attrs: nounwind uwtable
define ptr @PKCS12_unpack_authsafes(ptr noundef readonly captures(none) %0) local_unnamed_addr #0 {
  %2 = getelementptr inbounds nuw i8, ptr %0, i64 16
  %3 = load ptr, ptr %2, align 8, !tbaa !32
  %4 = getelementptr inbounds nuw i8, ptr %3, i64 24
  %5 = load ptr, ptr %4, align 8, !tbaa !13
  %6 = tail call i32 @OBJ_obj2nid(ptr noundef %5) #2
  %7 = icmp eq i32 %6, 21
  br i1 %7, label %9, label %8

8:                                                ; preds = %1
  tail call void @ERR_new() #2
  tail call void @ERR_set_debug(ptr noundef nonnull @.str, i32 noundef 203, ptr noundef nonnull @__func__.PKCS12_unpack_authsafes) #2
  tail call void (i32, i32, ptr, ...) @ERR_set_error(i32 noundef 35, i32 noundef 121, ptr noundef null) #2
  br label %.loopexit

9:                                                ; preds = %1
  %10 = load ptr, ptr %2, align 8, !tbaa !32
  %11 = getelementptr inbounds nuw i8, ptr %10, i64 32
  %12 = load ptr, ptr %11, align 8, !tbaa !9
  %13 = icmp eq ptr %12, null
  br i1 %13, label %14, label %15

14:                                               ; preds = %9
  tail call void @ERR_new() #2
  tail call void @ERR_set_debug(ptr noundef nonnull @.str, i32 noundef 208, ptr noundef nonnull @__func__.PKCS12_unpack_authsafes) #2
  tail call void (i32, i32, ptr, ...) @ERR_set_error(i32 noundef 35, i32 noundef 101, ptr noundef null) #2
  br label %.loopexit

15:                                               ; preds = %9
  %16 = getelementptr inbounds nuw i8, ptr %10, i64 40
  %17 = tail call ptr @PKCS12_AUTHSAFES_it() #2
  %18 = tail call ptr @ossl_pkcs7_ctx_get0_libctx(ptr noundef nonnull %16) #2
  %19 = tail call ptr @ossl_pkcs7_ctx_get0_propq(ptr noundef nonnull %16) #2
  %20 = tail call ptr @ASN1_item_unpack_ex(ptr noundef nonnull %12, ptr noundef %17, ptr noundef %18, ptr noundef %19) #2
  %.not = icmp eq ptr %20, null
  br i1 %.not, label %.loopexit, label %.preheader

.preheader:                                       ; preds = %15
  %21 = tail call i32 @OPENSSL_sk_num(ptr noundef nonnull %20) #2
  %22 = icmp sgt i32 %21, 0
  br i1 %22, label %.lr.ph, label %.loopexit

23:                                               ; preds = %.lr.ph
  %24 = add nuw nsw i32 %.020, 1
  %25 = tail call i32 @OPENSSL_sk_num(ptr noundef nonnull %20) #2
  %26 = icmp slt i32 %24, %25
  br i1 %26, label %.lr.ph, label %.loopexit, !llvm.loop !36

.lr.ph:                                           ; preds = %.preheader, %23
  %.020 = phi i32 [ %24, %23 ], [ 0, %.preheader ]
  %27 = tail call ptr @OPENSSL_sk_value(ptr noundef nonnull %20, i32 noundef %.020) #2
  %28 = load ptr, ptr %2, align 8, !tbaa !32
  %29 = tail call i32 @ossl_pkcs7_ctx_propagate(ptr noundef %28, ptr noundef %27) #2
  %.not19 = icmp eq i32 %29, 0
  br i1 %.not19, label %30, label %23

30:                                               ; preds = %.lr.ph
  tail call void @OPENSSL_sk_free(ptr noundef nonnull %20) #2
  br label %.loopexit

.loopexit:                                        ; preds = %23, %.preheader, %15, %30, %14, %8
  %.016 = phi ptr [ null, %14 ], [ null, %30 ], [ null, %8 ], [ null, %15 ], [ %20, %.preheader ], [ %20, %23 ]
  ret ptr %.016
}